; Function Attrs: mustprogress nounwind uwtable
define noalias noundef ptr @_ZN6Assimp6Intern22AllocateFromAssimpHeapnaEmRKSt9nothrow_t(i64 noundef %num_bytes, ptr nocapture noundef nonnull readnone align 1 dereferenceable(1) %0) local_unnamed_addr #1 align 2 personality ptr @__gxx_personality_v0 {
entry:
  %call.i1 = invoke noalias noundef nonnull ptr @_Znam(i64 noundef %num_bytes) #24
          to label %return unwind label %lpad

lpad:                                             ; preds = %entry
  %1 = landingpad { ptr, i32 }
          catch ptr null
  %2 = extractvalue { ptr, i32 } %1, 0
  %3 = tail call ptr @__cxa_begin_catch(ptr %2) #25
  invoke void @__cxa_end_catch()
          to label %return unwind label %terminate.lpad

return:                                           ; preds = %entry, %lpad
  %retval.0 = phi ptr [ null, %lpad ], [ %call.i1, %entry ]
  ret ptr %retval.0

terminate.lpad:                                   ; preds = %lpad
  %4 = landingpad { ptr, i32 }
          catch ptr null
  %5 = extractvalue { ptr, i32 } %4, 0
  tail call void @__clang_call_terminate(ptr %5) #23
  unreachable
}